; ModuleID = 'source-C-CXX/53/102.c'
source_filename = "source-C-CXX/53/102.c"
target datalayout = "e-m:e-p270:32:32-p271:32:32-p272:64:64-i64:64-f80:128-n8:16:32:64-S128"
target triple = "x86_64-pc-linux-gnu"

@.str = private unnamed_addr constant [5 x i8] c"%d%d\00", align 1
@.str.1 = private unnamed_addr constant [4 x i8] c"%d\0A\00", align 1

; Function Attrs: nofree nounwind sspstrong uwtable
define dso_local void @main() local_unnamed_addr #0 {
  %1 = alloca i32, align 4
  %2 = alloca i32, align 4
  %3 = bitcast i32* %1 to i8*
  call void @llvm.lifetime.start.p0i8(i64 4, i8* nonnull %3) #3
  %4 = bitcast i32* %2 to i8*
  call void @llvm.lifetime.start.p0i8(i64 4, i8* nonnull %4) #3
  %5 = call i32 (i8*, ...) @__isoc99_scanf(i8* getelementptr inbounds ([5 x i8], [5 x i8]* @.str, i64 0, i64 0), i32* nonnull %1, i32* nonnull %2)
  %6 = load i32, i32* %1, align 4, !tbaa !5
  %7 = add nsw i32 %6, -1
  %8 = load i32, i32* %2, align 4
  %9 = icmp sgt i32 %6, 0
  br label %10

10:                                               ; preds = %23, %0
  %11 = phi i32 [ 1, %0 ], [ %27, %23 ]
  br i1 %9, label %12, label %23

12:                                               ; preds = %10, %17
  %13 = phi i32 [ %20, %17 ], [ %11, %10 ]
  %14 = phi i32 [ %21, %17 ], [ 0, %10 ]
  %15 = srem i32 %13, %7
  %16 = icmp eq i32 %15, 0
  br i1 %16, label %17, label %23

17:                                               ; preds = %12
  %18 = mul nsw i32 %6, %13
  %19 = sdiv i32 %18, %7
  %20 = add nsw i32 %8, %19
  %21 = add nuw nsw i32 %14, 1
  %22 = icmp eq i32 %21, %6
  br i1 %22, label %28, label %12, !llvm.loop !9

23:                                               ; preds = %12, %10
  %24 = phi i32 [ 0, %10 ], [ %14, %12 ]
  %25 = phi i32 [ %11, %10 ], [ %13, %12 ]
  %26 = icmp eq i32 %24, %6
  %27 = add nuw nsw i32 %11, 1
  br i1 %26, label %28, label %10

28:                                               ; preds = %23, %17
  %29 = phi i32 [ %20, %17 ], [ %25, %23 ]
  %30 = call i32 (i8*, ...) @printf(i8* nonnull dereferenceable(1) getelementptr inbounds ([4 x i8], [4 x i8]* @.str.1, i64 0, i64 0), i32 %29)
  call void @llvm.lifetime.end.p0i8(i64 4, i8* nonnull %4) #3
  call void @llvm.lifetime.end.p0i8(i64 4, i8* nonnull %3) #3
  ret void
}

; Function Attrs: argmemonly mustprogress nofree nosync nounwind willreturn
declare void @llvm.lifetime.start.p0i8(i64 immarg, i8* nocapture) #1

; Function Attrs: nofree nounwind
declare noundef i32 @__isoc99_scanf(i8* nocapture noundef readonly, ...) local_unnamed_addr #2

; Function Attrs: nofree nounwind
declare noundef i32 @printf(i8* nocapture noundef readonly, ...) local_unnamed_addr #2

; Function Attrs: argmemonly mustprogress nofree nosync nounwind willreturn
declare void @llvm.lifetime.end.p0i8(i64 immarg, i8* nocapture) #1


!llvm.module.flags = !{!0, !1, !2, !3}
!llvm.ident = !{!4}

!0 = !{i32 1, !"wchar_size", i32 4}
!1 = !{i32 7, !"PIC Level", i32 2}
!2 = !{i32 7, !"PIE Level", i32 2}
!3 = !{i32 7, !"uwtable", i32 1}
!4 = !{!"clang version 13.0.0"}
!5 = !{!6, !6, i64 0}
!6 = !{!"int", !7, i64 0}
!7 = !{!"omnipotent char", !8, i64 0}
!8 = !{!"Simple C/C++ TBAA"}
!9 = distinct !{!9, !10}
!10 = !{!"llvm.loop.mustprogress"}
